; Function Attrs: mustprogress uwtable
define internal void @_ZN6duckdbL27GenericRoundFunctionDecimalIlNS_13NumericHelperENS_20RoundDecimalOperatorEEEvRNS_9DataChunkERNS_15ExpressionStateERNS_6VectorE(ptr noundef nonnull align 8 dereferenceable(64) %0, ptr noundef nonnull readonly align 8 captures(none) dereferenceable(176) %1, ptr noundef nonnull align 8 dereferenceable(104) %2) #0 {
  %4 = alloca %class.anon.249, align 8
  %5 = alloca i64, align 8
  %6 = alloca i64, align 8
  %7 = getelementptr inbounds nuw i8, ptr %1, i64 8
  %8 = load ptr, ptr %7, align 8, !tbaa !128
  %9 = tail call noundef nonnull align 8 dereferenceable(417) ptr @_ZNK6duckdb14BaseExpression4CastINS_23BoundFunctionExpressionEEERKT_v(ptr noundef nonnull align 8 dereferenceable(56) %8)
  %10 = getelementptr inbounds nuw i8, ptr %9, i64 384
  %11 = tail call noundef nonnull align 8 dereferenceable(8) ptr @_ZNK6duckdb6vectorINS_10unique_ptrINS_10ExpressionESt14default_deleteIS2_ELb1EEELb1EEixEm(ptr noundef nonnull align 8 dereferenceable(24) %10, i64 noundef 0)
  %12 = tail call noundef ptr @_ZNK6duckdb10unique_ptrINS_10ExpressionESt14default_deleteIS1_ELb1EEptEv(ptr noundef nonnull align 8 dereferenceable(8) %11)
  %13 = getelementptr inbounds nuw i8, ptr %12, i64 56
  %14 = tail call noundef zeroext i8 @_ZN6duckdb11DecimalType8GetScaleERKNS_11LogicalTypeE(ptr noundef nonnull align 8 dereferenceable(24) %13)
  call void @llvm.lifetime.start.p0(i64 8, ptr nonnull %5) #23
  %15 = zext i8 %14 to i64
  %16 = getelementptr inbounds nuw [20 x i64], ptr @_ZN6duckdb13NumericHelper13POWERS_OF_TENE, i64 0, i64 %15
  %17 = load i64, ptr %16, align 8, !tbaa !145
  store i64 %17, ptr %5, align 8, !tbaa !145
  call void @llvm.lifetime.start.p0(i64 8, ptr nonnull %6) #23
  %18 = sdiv i64 %17, 2
  store i64 %18, ptr %6, align 8, !tbaa !145
  %19 = tail call noundef nonnull align 8 dereferenceable(104) ptr @_ZN6duckdb6vectorINS_6VectorELb1EEixEm(ptr noundef nonnull align 8 dereferenceable(64) %0, i64 noundef 0)
  %20 = getelementptr inbounds nuw i8, ptr %0, i64 24
  %21 = load i64, ptr %20, align 8, !tbaa !39
  call void @llvm.lifetime.start.p0(i64 16, ptr nonnull %4)
  store ptr %6, ptr %4, align 8
  %22 = getelementptr inbounds nuw i8, ptr %4, i64 8
  store ptr %5, ptr %22, align 8
  call void @_ZN6duckdb13UnaryExecutor15ExecuteStandardIllNS_18UnaryLambdaWrapperEZNS_20RoundDecimalOperator9OperationIlNS_13NumericHelperEEEvRNS_9DataChunkEhRNS_6VectorEEUllE_EEvS9_S9_mPvbNS_14FunctionErrorsE(ptr noundef nonnull align 8 dereferenceable(104) %19, ptr noundef nonnull align 8 dereferenceable(104) %2, i64 noundef %21, ptr noundef nonnull %4, i1 noundef zeroext false, i8 noundef zeroext 1)
  call void @llvm.lifetime.end.p0(i64 16, ptr nonnull %4)
  call void @llvm.lifetime.end.p0(i64 8, ptr nonnull %6) #23
  call void @llvm.lifetime.end.p0(i64 8, ptr nonnull %5) #23
  ret void
}